; Function Attrs: mustprogress nofree norecurse nosync nounwind willreturn memory(read, inaccessiblemem: none) uwtable
define hidden noundef zeroext i1 @_ZNK5arith6solver8is_equalEii(ptr nocapture noundef nonnull readonly align 8 dereferenceable(1144) %this, i32 noundef %x, i32 noundef %y) local_unnamed_addr #9 align 2 {
entry:
  %cmp = icmp eq i32 %x, %y
  br i1 %cmp, label %lor.end, label %lor.rhs

lor.rhs:                                          ; preds = %entry
  %m_var2enode.i = getelementptr inbounds i8, ptr %this, i64 88
  %0 = load ptr, ptr %m_var2enode.i, align 8
  %idxprom.i.i = zext i32 %x to i64
  %arrayidx.i.i = getelementptr inbounds ptr, ptr %0, i64 %idxprom.i.i
  %1 = load ptr, ptr %arrayidx.i.i, align 8
  %m_root.i = getelementptr inbounds i8, ptr %1, i64 64
  %2 = load ptr, ptr %m_root.i, align 8
  %idxprom.i.i4 = zext i32 %y to i64
  %arrayidx.i.i5 = getelementptr inbounds ptr, ptr %0, i64 %idxprom.i.i4
  %3 = load ptr, ptr %arrayidx.i.i5, align 8
  %m_root.i6 = getelementptr inbounds i8, ptr %3, i64 64
  %4 = load ptr, ptr %m_root.i6, align 8
  %cmp5 = icmp eq ptr %2, %4
  br label %lor.end

lor.end:                                          ; preds = %lor.rhs, %entry
  %5 = phi i1 [ true, %entry ], [ %cmp5, %lor.rhs ]
  ret i1 %5
}